target datalayout = "e-m:e-p270:32:32-p271:32:32-p272:64:64-i64:64-i128:128-f80:128-n8:16:32:64-S128"
target triple = "x86_64-unknown-linux-gnu"

%"class.net::SourceAddressToken" = type { %"class.google::protobuf::MessageLite", %"struct.google::protobuf::internal::ArenaStringPtr", ptr, [1 x i32], i32, %"struct.google::protobuf::internal::ArenaStringPtr", i64, ptr }
%"class.google::protobuf::MessageLite" = type { ptr }
%"struct.google::protobuf::internal::ArenaStringPtr" = type { ptr }

@_ZN3net18SourceAddressToken17default_instance_E = dso_local global ptr null, align 8
@_ZN6google8protobuf8internal13empty_string_B5cxx11E = external global ptr, align 8

; Function Attrs: mustprogress nounwind uwtable
define linkonce_odr dso_local noundef nonnull align 8 dereferenceable(32) ptr @_ZNK6google8protobuf8internal14ArenaStringPtr10GetNoArenaEPKNSt7__cxx1112basic_stringIcSt11char_traitsIcESaIcEEE(ptr noundef nonnull align 8 dereferenceable(8) %this, ptr noundef %0) #0 comdat align 2 {
entry:
  %this.addr = alloca ptr, align 8
  %.addr = alloca ptr, align 8
  store ptr %this, ptr %this.addr, align 8
  store ptr %0, ptr %.addr, align 8
  %this1 = load ptr, ptr %this.addr, align 8
  %ptr_ = getelementptr inbounds %"struct.google::protobuf::internal::ArenaStringPtr", ptr %this1, i32 0, i32 0
  %1 = load ptr, ptr %ptr_, align 8
  ret ptr %1
}

; Function Attrs: mustprogress nounwind uwtable
define linkonce_odr dso_local void @_ZN3net18SourceAddressToken33set_has_cached_network_parametersEv(ptr noundef nonnull align 8 dereferenceable(56) %this) #0 comdat align 2 {
entry:
  %this.addr = alloca ptr, align 8
  store ptr %this, ptr %this.addr, align 8
  %this1 = load ptr, ptr %this.addr, align 8
  %_has_bits_ = getelementptr inbounds %"class.net::SourceAddressToken", ptr %this1, i32 0, i32 3
  %arrayidx = getelementptr inbounds [1 x i32], ptr %_has_bits_, i64 0, i64 0
  %0 = load i32, ptr %arrayidx, align 8
  %or = or i32 %0, 4
  store i32 %or, ptr %arrayidx, align 8
  ret void
}

; Function Attrs: mustprogress nounwind uwtable
define linkonce_odr dso_local void @_ZN3net18SourceAddressToken17set_has_timestampEv(ptr noundef nonnull align 8 dereferenceable(56) %this) #0 comdat align 2 {
entry:
  %this.addr = alloca ptr, align 8
  store ptr %this, ptr %this.addr, align 8
  %this1 = load ptr, ptr %this.addr, align 8
  %_has_bits_ = getelementptr inbounds %"class.net::SourceAddressToken", ptr %this1, i32 0, i32 3
  %arrayidx = getelementptr inbounds [1 x i32], ptr %_has_bits_, i64 0, i64 0
  %0 = load i32, ptr %arrayidx, align 8
  %or = or i32 %0, 2
  store i32 %or, ptr %arrayidx, align 8
  ret void
}

; Function Attrs: mustprogress uwtable
define linkonce_odr dso_local noundef ptr @_ZN3net18SourceAddressToken22mutable_unknown_fieldsB5cxx11Ev(ptr noundef nonnull align 8 dereferenceable(56) %this) #1 comdat align 2 {
entry:
  %this.addr = alloca ptr, align 8
  store ptr %this, ptr %this.addr, align 8
  %this1 = load ptr, ptr %this.addr, align 8
  %_unknown_fields_ = getelementptr inbounds %"class.net::SourceAddressToken", ptr %this1, i32 0, i32 1
  %call = call noundef nonnull align 8 dereferenceable(32) ptr @_ZN6google8protobuf8internal27GetEmptyStringAlreadyInitedB5cxx11Ev()
  %call2 = call noundef ptr @_ZN6google8protobuf8internal14ArenaStringPtr14MutableNoArenaEPKNSt7__cxx1112basic_stringIcSt11char_traitsIcESaIcEEE(ptr noundef nonnull align 8 dereferenceable(8) %_unknown_fields_, ptr noundef %call)
  ret ptr %call2
}

; Function Attrs: mustprogress nounwind uwtable
define linkonce_odr dso_local noundef nonnull align 8 dereferenceable(32) ptr @_ZNK3net18SourceAddressToken14unknown_fieldsB5cxx11Ev(ptr noundef nonnull align 8 dereferenceable(56) %this) #0 comdat align 2 {
entry:
  %this.addr = alloca ptr, align 8
  store ptr %this, ptr %this.addr, align 8
  %this1 = load ptr, ptr %this.addr, align 8
  %_unknown_fields_ = getelementptr inbounds %"class.net::SourceAddressToken", ptr %this1, i32 0, i32 1
  %call = call noundef nonnull align 8 dereferenceable(32) ptr @_ZN6google8protobuf8internal27GetEmptyStringAlreadyInitedB5cxx11Ev()
  %call2 = call noundef nonnull align 8 dereferenceable(32) ptr @_ZNK6google8protobuf8internal14ArenaStringPtr10GetNoArenaEPKNSt7__cxx1112basic_stringIcSt11char_traitsIcESaIcEEE(ptr noundef nonnull align 8 dereferenceable(8) %_unknown_fields_, ptr noundef %call)
  ret ptr %call2
}

; Function Attrs: mustprogress nounwind uwtable
define linkonce_odr dso_local noundef nonnull align 8 dereferenceable(72) ptr @_ZNK3net18SourceAddressToken25cached_network_parametersEv(ptr noundef nonnull align 8 dereferenceable(56) %this) #0 comdat align 2 {
entry:
  %this.addr = alloca ptr, align 8
  store ptr %this, ptr %this.addr, align 8
  %this1 = load ptr, ptr %this.addr, align 8
  %cached_network_parameters_ = getelementptr inbounds %"class.net::SourceAddressToken", ptr %this1, i32 0, i32 7
  %0 = load ptr, ptr %cached_network_parameters_, align 8
  %cmp = icmp ne ptr %0, null
  br i1 %cmp, label %cond.true, label %cond.false

cond.true:                                        ; preds = %entry
  %cached_network_parameters_2 = getelementptr inbounds %"class.net::SourceAddressToken", ptr %this1, i32 0, i32 7
  %1 = load ptr, ptr %cached_network_parameters_2, align 8
  br label %cond.end

cond.false:                                       ; preds = %entry
  %2 = load ptr, ptr @_ZN3net18SourceAddressToken17default_instance_E, align 8
  %cached_network_parameters_3 = getelementptr inbounds %"class.net::SourceAddressToken", ptr %2, i32 0, i32 7
  %3 = load ptr, ptr %cached_network_parameters_3, align 8
  br label %cond.end

cond.end:                                         ; preds = %cond.false, %cond.true
  %cond-lvalue = phi ptr [ %1, %cond.true ], [ %3, %cond.false ]
  ret ptr %cond-lvalue
}

; Function Attrs: mustprogress uwtable
define linkonce_odr dso_local noundef ptr @_ZN3net18SourceAddressToken33mutable_cached_network_parametersEv(ptr noundef nonnull align 8 dereferenceable(56) %this) #1 comdat align 2 personality ptr @__gxx_personality_v0 {
entry:
  %this.addr = alloca ptr, align 8
  %exn.slot = alloca ptr, align 8
  %ehselector.slot = alloca i32, align 4
  store ptr %this, ptr %this.addr, align 8
  %this1 = load ptr, ptr %this.addr, align 8
  call void @_ZN3net18SourceAddressToken33set_has_cached_network_parametersEv(ptr noundef nonnull align 8 dereferenceable(56) %this1)
  %cached_network_parameters_ = getelementptr inbounds %"class.net::SourceAddressToken", ptr %this1, i32 0, i32 7
  %0 = load ptr, ptr %cached_network_parameters_, align 8
  %cmp = icmp eq ptr %0, null
  br i1 %cmp, label %if.then, label %if.end

if.then:                                          ; preds = %entry
  %call = call noalias noundef nonnull ptr @_Znwm(i64 noundef 72) #13
  invoke void @_ZN3net23CachedNetworkParametersC1Ev(ptr noundef nonnull align 8 dereferenceable(72) %call)
          to label %invoke.cont unwind label %lpad

invoke.cont:                                      ; preds = %if.then
  %cached_network_parameters_2 = getelementptr inbounds %"class.net::SourceAddressToken", ptr %this1, i32 0, i32 7
  store ptr %call, ptr %cached_network_parameters_2, align 8
  br label %if.end

lpad:                                             ; preds = %if.then
  %1 = landingpad { ptr, i32 }
          cleanup
  %2 = extractvalue { ptr, i32 } %1, 0
  store ptr %2, ptr %exn.slot, align 8
  %3 = extractvalue { ptr, i32 } %1, 1
  store i32 %3, ptr %ehselector.slot, align 4
  call void @_ZdlPv(ptr noundef %call) #14
  br label %eh.resume

if.end:                                           ; preds = %invoke.cont, %entry
  %cached_network_parameters_3 = getelementptr inbounds %"class.net::SourceAddressToken", ptr %this1, i32 0, i32 7
  %4 = load ptr, ptr %cached_network_parameters_3, align 8
  ret ptr %4

eh.resume:                                        ; preds = %lpad
  %exn = load ptr, ptr %exn.slot, align 8
  %sel = load i32, ptr %ehselector.slot, align 4
  %lpad.val = insertvalue { ptr, i32 } poison, ptr %exn, 0
  %lpad.val4 = insertvalue { ptr, i32 } %lpad.val, i32 %sel, 1
  resume { ptr, i32 } %lpad.val4
}

; Function Attrs: mustprogress nounwind uwtable
define linkonce_odr dso_local noundef zeroext i1 @_ZNK3net18SourceAddressToken29has_cached_network_parametersEv(ptr noundef nonnull align 8 dereferenceable(56) %this) #0 comdat align 2 {
entry:
  %this.addr = alloca ptr, align 8
  store ptr %this, ptr %this.addr, align 8
  %this1 = load ptr, ptr %this.addr, align 8
  %_has_bits_ = getelementptr inbounds %"class.net::SourceAddressToken", ptr %this1, i32 0, i32 3
  %arrayidx = getelementptr inbounds [1 x i32], ptr %_has_bits_, i64 0, i64 0
  %0 = load i32, ptr %arrayidx, align 8
  %and = and i32 %0, 4
  %cmp = icmp ne i32 %and, 0
  ret i1 %cmp
}

; Function Attrs: mustprogress nounwind uwtable
define linkonce_odr dso_local void @_ZN3net18SourceAddressToken13set_timestampEl(ptr noundef nonnull align 8 dereferenceable(56) %this, i64 noundef %value) #0 comdat align 2 {
entry:
  %this.addr = alloca ptr, align 8
  %value.addr = alloca i64, align 8
  store ptr %this, ptr %this.addr, align 8
  store i64 %value, ptr %value.addr, align 8
  %this1 = load ptr, ptr %this.addr, align 8
  call void @_ZN3net18SourceAddressToken17set_has_timestampEv(ptr noundef nonnull align 8 dereferenceable(56) %this1)
  %0 = load i64, ptr %value.addr, align 8
  %timestamp_ = getelementptr inbounds %"class.net::SourceAddressToken", ptr %this1, i32 0, i32 6
  store i64 %0, ptr %timestamp_, align 8
  ret void
}

; Function Attrs: mustprogress nounwind uwtable
define linkonce_odr dso_local noundef i64 @_ZNK3net18SourceAddressToken9timestampEv(ptr noundef nonnull align 8 dereferenceable(56) %this) #0 comdat align 2 {
entry:
  %this.addr = alloca ptr, align 8
  store ptr %this, ptr %this.addr, align 8
  %this1 = load ptr, ptr %this.addr, align 8
  %timestamp_ = getelementptr inbounds %"class.net::SourceAddressToken", ptr %this1, i32 0, i32 6
  %0 = load i64, ptr %timestamp_, align 8
  ret i64 %0
}

; Function Attrs: mustprogress nounwind uwtable
define linkonce_odr dso_local noundef zeroext i1 @_ZNK3net18SourceAddressToken13has_timestampEv(ptr noundef nonnull align 8 dereferenceable(56) %this) #0 comdat align 2 {
entry:
  %this.addr = alloca ptr, align 8
  store ptr %this, ptr %this.addr, align 8
  %this1 = load ptr, ptr %this.addr, align 8
  %_has_bits_ = getelementptr inbounds %"class.net::SourceAddressToken", ptr %this1, i32 0, i32 3
  %arrayidx = getelementptr inbounds [1 x i32], ptr %_has_bits_, i64 0, i64 0
  %0 = load i32, ptr %arrayidx, align 8
  %and = and i32 %0, 2
  %cmp = icmp ne i32 %and, 0
  ret i1 %cmp
}

; Function Attrs: mustprogress nounwind uwtable
define linkonce_odr dso_local noundef nonnull align 8 dereferenceable(32) ptr @_ZN6google8protobuf8internal27GetEmptyStringAlreadyInitedB5cxx11Ev() #0 comdat {
entry:
  %0 = load ptr, ptr @_ZN6google8protobuf8internal13empty_string_B5cxx11E, align 8
  ret ptr %0
}

; Function Attrs: mustprogress nounwind uwtable
define linkonce_odr dso_local void @_ZN3net18SourceAddressToken10set_has_ipEv(ptr noundef nonnull align 8 dereferenceable(56) %this) #0 comdat align 2 {
entry:
  %this.addr = alloca ptr, align 8
  store ptr %this, ptr %this.addr, align 8
  %this1 = load ptr, ptr %this.addr, align 8
  %_has_bits_ = getelementptr inbounds %"class.net::SourceAddressToken", ptr %this1, i32 0, i32 3
  %arrayidx = getelementptr inbounds [1 x i32], ptr %_has_bits_, i64 0, i64 0
  %0 = load i32, ptr %arrayidx, align 8
  %or = or i32 %0, 1
  store i32 %or, ptr %arrayidx, align 8
  ret void
}

; Function Attrs: mustprogress nounwind uwtable
define linkonce_odr dso_local noundef zeroext i1 @_ZNK3net18SourceAddressToken6has_ipEv(ptr noundef nonnull align 8 dereferenceable(56) %this) #0 comdat align 2 {
entry:
  %this.addr = alloca ptr, align 8
  store ptr %this, ptr %this.addr, align 8
  %this1 = load ptr, ptr %this.addr, align 8
  %_has_bits_ = getelementptr inbounds %"class.net::SourceAddressToken", ptr %this1, i32 0, i32 3
  %arrayidx = getelementptr inbounds [1 x i32], ptr %_has_bits_, i64 0, i64 0
  %0 = load i32, ptr %arrayidx, align 8
  %and = and i32 %0, 1
  %cmp = icmp ne i32 %and, 0
  ret i1 %cmp
}

; Function Attrs: mustprogress uwtable
define dso_local void @_ZN3net18SourceAddressToken9MergeFromERKS0_(ptr noundef nonnull align 8 dereferenceable(56) %this, ptr noundef nonnull align 8 dereferenceable(56) %from) #1 align 2 {
entry:
  %this.addr = alloca ptr, align 8
  %from.addr = alloca ptr, align 8
  %agg.tmp = alloca %"struct.google::protobuf::internal::ArenaStringPtr", align 8
  store ptr %this, ptr %this.addr, align 8
  store ptr %from, ptr %from.addr, align 8
  %this1 = load ptr, ptr %this.addr, align 8
  %0 = load ptr, ptr %from.addr, align 8
  %cmp = icmp eq ptr %0, %this1
  br i1 %cmp, label %if.then, label %if.end

if.then:                                          ; preds = %entry
  call void @_ZN3net12_GLOBAL__N_113MergeFromFailEi(i32 noundef 336)
  br label %if.end

if.end:                                           ; preds = %if.then, %entry
  %1 = load ptr, ptr %from.addr, align 8
  %_has_bits_ = getelementptr inbounds %"class.net::SourceAddressToken", ptr %1, i32 0, i32 3
  %arrayidx = getelementptr inbounds [1 x i32], ptr %_has_bits_, i64 0, i64 0
  %2 = load i32, ptr %arrayidx, align 8
  %and = and i32 %2, 255
  %tobool = icmp ne i32 %and, 0
  br i1 %tobool, label %if.then2, label %if.end16

if.then2:                                         ; preds = %if.end
  %3 = load ptr, ptr %from.addr, align 8
  %call = call noundef zeroext i1 @_ZNK3net18SourceAddressToken6has_ipEv(ptr noundef nonnull align 8 dereferenceable(56) %3)
  br i1 %call, label %if.then3, label %if.end6

if.then3:                                         ; preds = %if.then2
  call void @_ZN3net18SourceAddressToken10set_has_ipEv(ptr noundef nonnull align 8 dereferenceable(56) %this1)
  %ip_ = getelementptr inbounds %"class.net::SourceAddressToken", ptr %this1, i32 0, i32 5
  %call4 = call noundef nonnull align 8 dereferenceable(32) ptr @_ZN6google8protobuf8internal27GetEmptyStringAlreadyInitedB5cxx11Ev()
  %4 = load ptr, ptr %from.addr, align 8
  %ip_5 = getelementptr inbounds %"class.net::SourceAddressToken", ptr %4, i32 0, i32 5
  call void @llvm.memcpy.p0.p0.i64(ptr align 8 %agg.tmp, ptr align 8 %ip_5, i64 8, i1 false)
  %coerce.dive = getelementptr inbounds %"struct.google::protobuf::internal::ArenaStringPtr", ptr %agg.tmp, i32 0, i32 0
  %5 = load ptr, ptr %coerce.dive, align 8
  call void @_ZN6google8protobuf8internal14ArenaStringPtr17AssignWithDefaultEPKNSt7__cxx1112basic_stringIcSt11char_traitsIcESaIcEEES2_(ptr noundef nonnull align 8 dereferenceable(8) %ip_, ptr noundef %call4, ptr %5)
  br label %if.end6

if.end6:                                          ; preds = %if.then3, %if.then2
  %6 = load ptr, ptr %from.addr, align 8
  %call7 = call noundef zeroext i1 @_ZNK3net18SourceAddressToken13has_timestampEv(ptr noundef nonnull align 8 dereferenceable(56) %6)
  br i1 %call7, label %if.then8, label %if.end10

if.then8:                                         ; preds = %if.end6
  %7 = load ptr, ptr %from.addr, align 8
  %call9 = call noundef i64 @_ZNK3net18SourceAddressToken9timestampEv(ptr noundef nonnull align 8 dereferenceable(56) %7)
  call void @_ZN3net18SourceAddressToken13set_timestampEl(ptr noundef nonnull align 8 dereferenceable(56) %this1, i64 noundef %call9)
  br label %if.end10

if.end10:                                         ; preds = %if.then8, %if.end6
  %8 = load ptr, ptr %from.addr, align 8
  %call11 = call noundef zeroext i1 @_ZNK3net18SourceAddressToken29has_cached_network_parametersEv(ptr noundef nonnull align 8 dereferenceable(56) %8)
  br i1 %call11, label %if.then12, label %if.end15

if.then12:                                        ; preds = %if.end10
  %call13 = call noundef ptr @_ZN3net18SourceAddressToken33mutable_cached_network_parametersEv(ptr noundef nonnull align 8 dereferenceable(56) %this1)
  %9 = load ptr, ptr %from.addr, align 8
  %call14 = call noundef nonnull align 8 dereferenceable(72) ptr @_ZNK3net18SourceAddressToken25cached_network_parametersEv(ptr noundef nonnull align 8 dereferenceable(56) %9)
  call void @_ZN3net23CachedNetworkParameters9MergeFromERKS0_(ptr noundef nonnull align 8 dereferenceable(72) %call13, ptr noundef nonnull align 8 dereferenceable(72) %call14)
  br label %if.end15

if.end15:                                         ; preds = %if.then12, %if.end10
  br label %if.end16

if.end16:                                         ; preds = %if.end15, %if.end
  %10 = load ptr, ptr %from.addr, align 8
  %call17 = call noundef nonnull align 8 dereferenceable(32) ptr @_ZNK3net18SourceAddressToken14unknown_fieldsB5cxx11Ev(ptr noundef nonnull align 8 dereferenceable(56) %10)
  %call18 = call noundef zeroext i1 @_ZNKSt7__cxx1112basic_stringIcSt11char_traitsIcESaIcEE5emptyEv(ptr noundef nonnull align 8 dereferenceable(32) %call17) #12
  br i1 %call18, label %if.end23, label %if.then19

if.then19:                                        ; preds = %if.end16
  %call20 = call noundef ptr @_ZN3net18SourceAddressToken22mutable_unknown_fieldsB5cxx11Ev(ptr noundef nonnull align 8 dereferenceable(56) %this1)
  %11 = load ptr, ptr %from.addr, align 8
  %call21 = call noundef nonnull align 8 dereferenceable(32) ptr @_ZNK3net18SourceAddressToken14unknown_fieldsB5cxx11Ev(ptr noundef nonnull align 8 dereferenceable(56) %11)
  %call22 = call noundef nonnull align 8 dereferenceable(32) ptr @_ZNSt7__cxx1112basic_stringIcSt11char_traitsIcESaIcEE6appendERKS4_(ptr noundef nonnull align 8 dereferenceable(32) %call20, ptr noundef nonnull align 8 dereferenceable(32) %call21)
  br label %if.end23

if.end23:                                         ; preds = %if.then19, %if.end16
  ret void
}