; Function Attrs: mustprogress uwtable
define dso_local void @_ZN3net18SourceAddressToken9MergeFromERKS0_(ptr noundef nonnull align 8 dereferenceable(56) %this, ptr noundef nonnull readonly align 8 dereferenceable(56) %from) local_unnamed_addr #1 align 2 personality ptr @__gxx_personality_v0 {
entry:
  %cmp = icmp eq ptr %from, %this
  br i1 %cmp, label %if.then, label %if.end

if.then:                                          ; preds = %entry
  tail call fastcc void @_ZN3net12_GLOBAL__N_113MergeFromFailEi(i32 noundef 336)
  br label %if.end

if.end:                                           ; preds = %if.then, %entry
  %_has_bits_ = getelementptr inbounds i8, ptr %from, i64 24
  %0 = load i32, ptr %_has_bits_, align 8
  %and = and i32 %0, 255
  %tobool.not = icmp eq i32 %and, 0
  br i1 %tobool.not, label %if.end16, label %if.then2

if.then2:                                         ; preds = %if.end
  %and.i = and i32 %0, 1
  %cmp.i.not = icmp eq i32 %and.i, 0
  br i1 %cmp.i.not, label %if.end6, label %if.then3

if.then3:                                         ; preds = %if.then2
  %_has_bits_.i10 = getelementptr inbounds i8, ptr %this, i64 24
  %1 = load i32, ptr %_has_bits_.i10, align 8
  %or.i = or i32 %1, 1
  store i32 %or.i, ptr %_has_bits_.i10, align 8
  %ip_ = getelementptr inbounds i8, ptr %this, i64 32
  %2 = load ptr, ptr @_ZN6google8protobuf8internal13empty_string_B5cxx11E, align 8
  %ip_5 = getelementptr inbounds i8, ptr %from, i64 32
  %agg.tmp.sroa.0.0.copyload = load ptr, ptr %ip_5, align 8
  tail call void @_ZN6google8protobuf8internal14ArenaStringPtr17AssignWithDefaultEPKNSt7__cxx1112basic_stringIcSt11char_traitsIcESaIcEEES2_(ptr noundef nonnull align 8 dereferenceable(8) %ip_, ptr noundef nonnull %2, ptr %agg.tmp.sroa.0.0.copyload)
  %.pre = load i32, ptr %_has_bits_, align 8
  br label %if.end6

if.end6:                                          ; preds = %if.then3, %if.then2
  %3 = phi i32 [ %.pre, %if.then3 ], [ %0, %if.then2 ]
  %and.i12 = and i32 %3, 2
  %cmp.i13.not = icmp eq i32 %and.i12, 0
  br i1 %cmp.i13.not, label %if.end10, label %if.then8

if.then8:                                         ; preds = %if.end6
  %timestamp_.i = getelementptr inbounds i8, ptr %from, i64 40
  %4 = load i64, ptr %timestamp_.i, align 8
  %_has_bits_.i.i = getelementptr inbounds i8, ptr %this, i64 24
  %5 = load i32, ptr %_has_bits_.i.i, align 8
  %or.i.i = or i32 %5, 2
  store i32 %or.i.i, ptr %_has_bits_.i.i, align 8
  %timestamp_.i14 = getelementptr inbounds i8, ptr %this, i64 40
  store i64 %4, ptr %timestamp_.i14, align 8
  %.pre24 = load i32, ptr %_has_bits_, align 8
  br label %if.end10

if.end10:                                         ; preds = %if.then8, %if.end6
  %6 = phi i32 [ %.pre24, %if.then8 ], [ %3, %if.end6 ]
  %and.i16 = and i32 %6, 4
  %cmp.i17.not = icmp eq i32 %and.i16, 0
  br i1 %cmp.i17.not, label %if.end16, label %if.then12

if.then12:                                        ; preds = %if.end10
  %_has_bits_.i.i18 = getelementptr inbounds i8, ptr %this, i64 24
  %7 = load i32, ptr %_has_bits_.i.i18, align 8
  %or.i.i19 = or i32 %7, 4
  store i32 %or.i.i19, ptr %_has_bits_.i.i18, align 8
  %cached_network_parameters_.i = getelementptr inbounds i8, ptr %this, i64 48
  %8 = load ptr, ptr %cached_network_parameters_.i, align 8
  %cmp.i20 = icmp eq ptr %8, null
  br i1 %cmp.i20, label %if.then.i, label %_ZN3net18SourceAddressToken33mutable_cached_network_parametersEv.exit

if.then.i:                                        ; preds = %if.then12
  %call.i = tail call noalias noundef nonnull dereferenceable(72) ptr @_Znwm(i64 noundef 72) #15
  invoke void @_ZN3net23CachedNetworkParametersC1Ev(ptr noundef nonnull align 8 dereferenceable(72) %call.i)
          to label %invoke.cont.i unwind label %lpad.i

invoke.cont.i:                                    ; preds = %if.then.i
  store ptr %call.i, ptr %cached_network_parameters_.i, align 8
  br label %_ZN3net18SourceAddressToken33mutable_cached_network_parametersEv.exit

lpad.i:                                           ; preds = %if.then.i
  %9 = landingpad { ptr, i32 }
          cleanup
  tail call void @_ZdlPv(ptr noundef nonnull %call.i) #16
  resume { ptr, i32 } %9

_ZN3net18SourceAddressToken33mutable_cached_network_parametersEv.exit: ; preds = %if.then12, %invoke.cont.i
  %10 = phi ptr [ %call.i, %invoke.cont.i ], [ %8, %if.then12 ]
  %cached_network_parameters_.i21 = getelementptr inbounds i8, ptr %from, i64 48
  %11 = load ptr, ptr %cached_network_parameters_.i21, align 8
  %cmp.not.i = icmp eq ptr %11, null
  br i1 %cmp.not.i, label %cond.false.i, label %_ZNK3net18SourceAddressToken25cached_network_parametersEv.exit

cond.false.i:                                     ; preds = %_ZN3net18SourceAddressToken33mutable_cached_network_parametersEv.exit
  %12 = load ptr, ptr @_ZN3net18SourceAddressToken17default_instance_E, align 8
  %cached_network_parameters_3.i = getelementptr inbounds i8, ptr %12, i64 48
  %13 = load ptr, ptr %cached_network_parameters_3.i, align 8
  br label %_ZNK3net18SourceAddressToken25cached_network_parametersEv.exit

_ZNK3net18SourceAddressToken25cached_network_parametersEv.exit: ; preds = %_ZN3net18SourceAddressToken33mutable_cached_network_parametersEv.exit, %cond.false.i
  %cond-lvalue.i = phi ptr [ %13, %cond.false.i ], [ %11, %_ZN3net18SourceAddressToken33mutable_cached_network_parametersEv.exit ]
  tail call void @_ZN3net23CachedNetworkParameters9MergeFromERKS0_(ptr noundef nonnull align 8 dereferenceable(72) %10, ptr noundef nonnull align 8 dereferenceable(72) %cond-lvalue.i)
  br label %if.end16

if.end16:                                         ; preds = %if.end10, %_ZNK3net18SourceAddressToken25cached_network_parametersEv.exit, %if.end
  %_unknown_fields_.i = getelementptr inbounds i8, ptr %from, i64 8
  %14 = load ptr, ptr %_unknown_fields_.i, align 8
  %call18 = tail call noundef zeroext i1 @_ZNKSt7__cxx1112basic_stringIcSt11char_traitsIcESaIcEE5emptyEv(ptr noundef nonnull align 8 dereferenceable(32) %14) #14
  br i1 %call18, label %if.end23, label %if.then19

if.then19:                                        ; preds = %if.end16
  %_unknown_fields_.i22 = getelementptr inbounds i8, ptr %this, i64 8
  %15 = load ptr, ptr @_ZN6google8protobuf8internal13empty_string_B5cxx11E, align 8
  %call2.i = tail call noundef ptr @_ZN6google8protobuf8internal14ArenaStringPtr14MutableNoArenaEPKNSt7__cxx1112basic_stringIcSt11char_traitsIcESaIcEEE(ptr noundef nonnull align 8 dereferenceable(8) %_unknown_fields_.i22, ptr noundef nonnull %15)
  %16 = load ptr, ptr %_unknown_fields_.i, align 8
  %call22 = tail call noundef nonnull align 8 dereferenceable(32) ptr @_ZNSt7__cxx1112basic_stringIcSt11char_traitsIcESaIcEE6appendERKS4_(ptr noundef nonnull align 8 dereferenceable(32) %call2.i, ptr noundef nonnull align 8 dereferenceable(32) %16)
  br label %if.end23

if.end23:                                         ; preds = %if.then19, %if.end16
  ret void
}